__ZNSt3__113__vector_baseI9ProbIndexNS_9allocatorIS1_EEED2Ev
__ZNSt3__114__split_bufferI9ProbIndexRNS_9allocatorIS1_EEEC2EmmS4_
__ZNSt3__114__split_bufferI9ProbIndexRNS_9allocatorIS1_EEED2Ev
__ZNSt3__116__push_heap_backIR25CompareProbIndexAscendingNS_11__wrap_iterIP9ProbIndexEEEEvT0_S7_T_NS_15iterator_traitsIS7_E15difference_typeE
__ZNSt3__117__push_heap_frontIR25CompareProbIndexAscendingNS_11__wrap_iterIP9ProbIndexEEEEvT0_S7_T_NS_15iterator_traitsIS7_E15difference_typeE
__ZNSt3__118__insertion_sort_3IR26CompareProbIndexDescendingP9ProbIndexEEvT0_S5_T_
__ZNSt3__118__tree_left_rotateIPNS_16__tree_node_baseIPvEEEEvT_
__ZNSt3__119__tree_right_rotateIPNS_16__tree_node_baseIPvEEEEvT_
__ZNSt3__127__insertion_sort_incompleteIR26CompareProbIndexDescendingP9ProbIndexEEbT0_S5_T_
__ZNSt3__127__tree_balance_after_insertIPNS_16__tree_node_baseIPvEEEEvT_S5_
__ZNSt3__13mapIPciNS_4lessIS1_EENS_9allocatorINS_4pairIKS1_iEEEEE16__find_equal_keyERPNS_16__tree_node_baseIPvEERS6_
__ZNSt3__13mapIPciNS_4lessIS1_EENS_9allocatorINS_4pairIKS1_iEEEEEixERS6_
__ZNSt3__16__sortIR26CompareProbIndexDescendingP9ProbIndexEEvT0_S5_T_
__ZNSt3__16__treeINS_12__value_typeIPciEENS_19__map_value_compareIS2_S3_NS_4lessIS2_EELb1EEENS_9allocatorIS3_EEE16__insert_node_atEPNS_16__tree_node_baseIPvEERSE_SE_
__ZNSt3__16__treeINS_12__value_typeIPciEENS_19__map_value_compareIS2_S3_NS_4lessIS2_EELb1EEENS_9allocatorIS3_EEE4findIS2_EENS_15__tree_iteratorIS3_PNS_11__tree_nodeIS3_PvEElEERKT_
__ZNSt3__16__treeINS_12__value_typeIPciEENS_19__map_value_compareIS2_S3_NS_4lessIS2_EELb1EEENS_9allocatorIS3_EEE7destroyEPNS_11__tree_nodeIS3_PvEE
__ZNSt3__16vectorI9ProbIndexNS_9allocatorIS1_EEE21__push_back_slow_pathIRKS1_EEvOT_
__ZNSt3__16vectorI9ProbIndexNS_9allocatorIS1_EEE6resizeEm
__ZNSt3__16vectorI9ProbIndexNS_9allocatorIS1_EEE8__appendEm
__ZNSt3__16vectorIiNS_9allocatorIiEEE10deallocateEv
__ZNSt3__16vectorIiNS_9allocatorIiEEE18__construct_at_endIPiEENS_9enable_ifIXsr21__is_forward_iteratorIT_EE5valueEvE4typeES7_S7_
__ZNSt3__16vectorIiNS_9allocatorIiEEE6assignIPiEENS_9enable_ifIXaasr21__is_forward_iteratorIT_EE5valuesr16is_constructibleIiNS_15iterator_traitsIS7_E9referenceEEE5valueEvE4typeES7_S7_
__ZNSt3__16vectorIiNS_9allocatorIiEEE6resizeEm
__ZNSt3__16vectorIiNS_9allocatorIiEEE8__appendEm
__ZNSt3__17__sort3IR26CompareProbIndexDescendingP9ProbIndexEEjT0_S5_S5_T_
__ZNSt3__17__sort4IR26CompareProbIndexDescendingP9ProbIndexEEjT0_S5_S5_S5_T_
__ZNSt3__17__sort5IR26CompareProbIndexDescendingP9ProbIndexEEjT0_S5_S5_S5_S5_T_
__ZNSt3__113__vector_baseI11VectorClassNS_9allocatorIS1_EEED2Ev
__ZNSt3__113__vector_baseIdNS_9allocatorIdEEED2Ev
__ZNSt3__113__vector_baseIiNS_9allocatorIiEEED2Ev
__ZNSt3__114__split_bufferI11VectorClassRNS_9allocatorIS1_EEEC2EmmS4_
__ZNSt3__114__split_bufferI11VectorClassRNS_9allocatorIS1_EEED2Ev
__ZNSt3__114__split_bufferIdRNS_9allocatorIdEEEC2EmmS3_
__ZNSt3__114__split_bufferIdRNS_9allocatorIdEEED2Ev
__ZNSt3__114__split_bufferIiRNS_9allocatorIiEEEC2EmmS3_
__ZNSt3__114__split_bufferIiRNS_9allocatorIiEEED2Ev
__ZNSt3__16vectorI11VectorClassNS_9allocatorIS1_EEE21__push_back_slow_pathIRKS1_EEvOT_
__ZNSt3__16vectorIdNS_9allocatorIdEEE21__push_back_slow_pathIRKdEEvOT_
__ZNSt3__16vectorIdNS_9allocatorIdEEE21__push_back_slow_pathIdEEvOT_
__ZNSt3__16vectorIdNS_9allocatorIdEEE6resizeEm
__ZNSt3__16vectorIdNS_9allocatorIdEEE7reserveEm
__ZNSt3__16vectorIdNS_9allocatorIdEEE8__appendEm
__ZNSt3__16vectorIdNS_9allocatorIdEEE8allocateEm
__ZNSt3__16vectorIdNS_9allocatorIdEEEC2Em
__ZNSt3__16vectorIiNS_9allocatorIiEEE21__push_back_slow_pathIRKiEEvOT_
__ZNSt3__16vectorIiNS_9allocatorIiEEE21__push_back_slow_pathIiEEvOT_
__ZNSt3__16vectorIiNS_9allocatorIiEEE7reserveEm
__ZNSt3__16vectorIiNS_9allocatorIiEEE8allocateEm
__ZNSt3__16vectorIiNS_9allocatorIiEEEC2Em
